target datalayout = "e-m:e-p270:32:32-p271:32:32-p272:64:64-i64:64-i128:128-f80:128-n8:16:32:64-S128"
target triple = "x86_64-pc-linux-gnu"

@hf_spnego_krb5 = internal global i32 0, align 4
@hf_spnego_krb5_tok_id = internal global i32 0, align 4
@hf_spnego_krb5_sgn_cksum = internal global i32 0, align 4
@hf_spnego_krb5_filler = internal global i32 0, align 4
@hf_spnego_krb5_cfx_flags = internal global i32 0, align 4
@hf_spnego_krb5_cfx_seq = internal global i32 0, align 4
@ett_spnego_krb5 = internal global i32 0, align 4
@ett_spnego_krb5_cfx_flags = internal global i32 0, align 4
@dissect_spnego_krb5_cfx_flags.flags = internal constant [4 x ptr] [ptr @hf_spnego_krb5_cfx_flags_04, ptr @hf_spnego_krb5_cfx_flags_02, ptr @hf_spnego_krb5_cfx_flags_01, ptr null], align 16

; Function Attrs: nounwind uwtable
define internal i32 @dissect_spnego_krb5_cfx_flags(ptr noundef %0, i32 noundef %1, ptr noundef %2, i8 noundef zeroext %3) #0 {
  %5 = alloca ptr, align 8
  %6 = alloca i32, align 4
  %7 = alloca ptr, align 8
  %8 = alloca i8, align 1
  store ptr %0, ptr %5, align 8
  store i32 %1, ptr %6, align 4
  store ptr %2, ptr %7, align 8
  store i8 %3, ptr %8, align 1
  %9 = load ptr, ptr %7, align 8
  %10 = load ptr, ptr %5, align 8
  %11 = load i32, ptr %6, align 4
  %12 = load i32, ptr @hf_spnego_krb5_cfx_flags, align 4
  %13 = load i32, ptr @ett_spnego_krb5_cfx_flags, align 4
  %14 = call ptr @proto_tree_add_bitmask(ptr noundef %9, ptr noundef %10, i32 noundef %11, i32 noundef %12, i32 noundef %13, ptr noundef @dissect_spnego_krb5_cfx_flags.flags, i32 noundef 0)
  %15 = load i32, ptr %6, align 4
  %16 = add i32 %15, 1
  ret i32 %16
}

; Function Attrs: nounwind uwtable
define internal i32 @dissect_spnego_krb5_cfx_getmic_base(ptr noundef %0, i32 noundef %1, ptr noundef %2, ptr noundef %3) #0 {
  %5 = alloca ptr, align 8
  %6 = alloca i32, align 4
  %7 = alloca ptr, align 8
  %8 = alloca ptr, align 8
  %9 = alloca i8, align 1
  %10 = alloca i32, align 4
  store ptr %0, ptr %5, align 8
  store i32 %1, ptr %6, align 4
  store ptr %2, ptr %7, align 8
  store ptr %3, ptr %8, align 8
  %11 = load ptr, ptr %5, align 8
  %12 = load i32, ptr %6, align 4
  %13 = call zeroext i8 @tvb_get_guint8(ptr noundef %11, i32 noundef %12)
  store i8 %13, ptr %9, align 1
  %14 = load ptr, ptr %5, align 8
  %15 = load i32, ptr %6, align 4
  %16 = load ptr, ptr %8, align 8
  %17 = load i8, ptr %9, align 1
  %18 = call i32 @dissect_spnego_krb5_cfx_flags(ptr noundef %14, i32 noundef %15, ptr noundef %16, i8 noundef zeroext %17)
  store i32 %18, ptr %6, align 4
  %19 = load ptr, ptr %8, align 8
  %20 = load i32, ptr @hf_spnego_krb5_filler, align 4
  %21 = load ptr, ptr %5, align 8
  %22 = load i32, ptr %6, align 4
  %23 = call ptr @proto_tree_add_item(ptr noundef %19, i32 noundef %20, ptr noundef %21, i32 noundef %22, i32 noundef 5, i32 noundef 0)
  %24 = load i32, ptr %6, align 4
  %25 = add i32 %24, 5
  store i32 %25, ptr %6, align 4
  %26 = load ptr, ptr %8, align 8
  %27 = load i32, ptr @hf_spnego_krb5_cfx_seq, align 4
  %28 = load ptr, ptr %5, align 8
  %29 = load i32, ptr %6, align 4
  %30 = call ptr @proto_tree_add_item(ptr noundef %26, i32 noundef %27, ptr noundef %28, i32 noundef %29, i32 noundef 8, i32 noundef 0)
  %31 = load i32, ptr %6, align 4
  %32 = add i32 %31, 8
  store i32 %32, ptr %6, align 4
  %33 = load ptr, ptr %5, align 8
  %34 = load i32, ptr %6, align 4
  %35 = call i32 @tvb_captured_length_remaining(ptr noundef %33, i32 noundef %34)
  store i32 %35, ptr %10, align 4
  %36 = load ptr, ptr %8, align 8
  %37 = load i32, ptr @hf_spnego_krb5_sgn_cksum, align 4
  %38 = load ptr, ptr %5, align 8
  %39 = load i32, ptr %6, align 4
  %40 = load i32, ptr %10, align 4
  %41 = call ptr @proto_tree_add_item(ptr noundef %36, i32 noundef %37, ptr noundef %38, i32 noundef %39, i32 noundef %40, i32 noundef 0)
  %42 = load i32, ptr %10, align 4
  %43 = load i32, ptr %6, align 4
  %44 = add i32 %43, %42
  store i32 %44, ptr %6, align 4
  %45 = load i32, ptr %6, align 4
  ret i32 %45
}

; Function Attrs: nounwind uwtable
define internal i32 @dissect_spnego_krb5_wrap(ptr noundef %0, ptr noundef %1, ptr noundef %2, ptr noundef %3) #0 {
  %5 = alloca ptr, align 8
  %6 = alloca ptr, align 8
  %7 = alloca ptr, align 8
  %8 = alloca ptr, align 8
  %9 = alloca ptr, align 8
  %10 = alloca ptr, align 8
  %11 = alloca i32, align 4
  %12 = alloca i16, align 2
  %13 = alloca ptr, align 8
  store ptr %0, ptr %5, align 8
  store ptr %1, ptr %6, align 8
  store ptr %2, ptr %7, align 8
  store ptr %3, ptr %8, align 8
  store i32 0, ptr %11, align 4
  %14 = load ptr, ptr %8, align 8
  store ptr %14, ptr %13, align 8
  %15 = load ptr, ptr %7, align 8
  %16 = load i32, ptr @hf_spnego_krb5, align 4
  %17 = load ptr, ptr %5, align 8
  %18 = call ptr @proto_tree_add_item(ptr noundef %15, i32 noundef %16, ptr noundef %17, i32 noundef 0, i32 noundef -1, i32 noundef 0)
  store ptr %18, ptr %9, align 8
  %19 = load ptr, ptr %9, align 8
  %20 = load i32, ptr @ett_spnego_krb5, align 4
  %21 = call ptr @proto_item_add_subtree(ptr noundef %19, i32 noundef %20)
  store ptr %21, ptr %10, align 8
  %22 = load ptr, ptr %5, align 8
  %23 = load i32, ptr %11, align 4
  %24 = call zeroext i16 @tvb_get_letohs(ptr noundef %22, i32 noundef %23)
  store i16 %24, ptr %12, align 2
  %25 = load ptr, ptr %10, align 8
  %26 = load i32, ptr @hf_spnego_krb5_tok_id, align 4
  %27 = load ptr, ptr %5, align 8
  %28 = load i32, ptr %11, align 4
  %29 = load i16, ptr %12, align 2
  %30 = zext i16 %29 to i32
  %31 = call ptr @proto_tree_add_uint(ptr noundef %25, i32 noundef %26, ptr noundef %27, i32 noundef %28, i32 noundef 2, i32 noundef %30)
  %32 = load i32, ptr %11, align 4
  %33 = add i32 %32, 2
  store i32 %33, ptr %11, align 4
  %34 = load i16, ptr %12, align 2
  %35 = zext i16 %34 to i32
  switch i32 %35, label %64 [
    i32 257, label %36
    i32 258, label %42
    i32 1028, label %50
    i32 1029, label %56
  ]

36:                                               ; preds = %4
  %37 = load ptr, ptr %5, align 8
  %38 = load i32, ptr %11, align 4
  %39 = load ptr, ptr %6, align 8
  %40 = load ptr, ptr %10, align 8
  %41 = call i32 @dissect_spnego_krb5_getmic_base(ptr noundef %37, i32 noundef %38, ptr noundef %39, ptr noundef %40)
  store i32 %41, ptr %11, align 4
  br label %65

42:                                               ; preds = %4
  %43 = load ptr, ptr %5, align 8
  %44 = load i32, ptr %11, align 4
  %45 = load ptr, ptr %6, align 8
  %46 = load ptr, ptr %10, align 8
  %47 = load i16, ptr %12, align 2
  %48 = load ptr, ptr %13, align 8
  %49 = call i32 @dissect_spnego_krb5_wrap_base(ptr noundef %43, i32 noundef %44, ptr noundef %45, ptr noundef %46, i16 noundef zeroext %47, ptr noundef %48)
  store i32 %49, ptr %11, align 4
  br label %65

50:                                               ; preds = %4
  %51 = load ptr, ptr %5, align 8
  %52 = load i32, ptr %11, align 4
  %53 = load ptr, ptr %6, align 8
  %54 = load ptr, ptr %10, align 8
  %55 = call i32 @dissect_spnego_krb5_cfx_getmic_base(ptr noundef %51, i32 noundef %52, ptr noundef %53, ptr noundef %54)
  store i32 %55, ptr %11, align 4
  br label %65

56:                                               ; preds = %4
  %57 = load ptr, ptr %5, align 8
  %58 = load i32, ptr %11, align 4
  %59 = load ptr, ptr %6, align 8
  %60 = load ptr, ptr %10, align 8
  %61 = load i16, ptr %12, align 2
  %62 = load ptr, ptr %13, align 8
  %63 = call i32 @dissect_spnego_krb5_cfx_wrap_base(ptr noundef %57, i32 noundef %58, ptr noundef %59, ptr noundef %60, i16 noundef zeroext %61, ptr noundef %62)
  store i32 %63, ptr %11, align 4
  br label %65

64:                                               ; preds = %4
  br label %65

65:                                               ; preds = %64, %56, %50, %42, %36
  %66 = load ptr, ptr %9, align 8
  %67 = load i32, ptr %11, align 4
  call void @proto_item_set_len(ptr noundef %66, i32 noundef %67)
  %68 = load i32, ptr %11, align 4
  ret i32 %68
}