; Function Attrs: nounwind uwtable
define internal noundef i32 @dissect_spnego_krb5_wrap(ptr noundef %0, ptr noundef %1, ptr noundef %2, ptr noundef %3) #0 {
  %5 = load i32, ptr @hf_spnego_krb5, align 4
  %6 = tail call ptr @proto_tree_add_item(ptr noundef %2, i32 noundef %5, ptr noundef %0, i32 noundef 0, i32 noundef -1, i32 noundef 0) #6
  %7 = load i32, ptr @ett_spnego_krb5, align 4
  %8 = tail call ptr @proto_item_add_subtree(ptr noundef %6, i32 noundef %7) #6
  %9 = tail call zeroext i16 @tvb_get_letohs(ptr noundef %0, i32 noundef 0) #6
  %10 = load i32, ptr @hf_spnego_krb5_tok_id, align 4
  %11 = zext i16 %9 to i32
  %12 = tail call ptr @proto_tree_add_uint(ptr noundef %8, i32 noundef %10, ptr noundef %0, i32 noundef 0, i32 noundef 2, i32 noundef %11) #6
  switch i16 %9, label %32 [
    i16 257, label %13
    i16 258, label %15
    i16 1028, label %17
    i16 1029, label %30
  ]

13:                                               ; preds = %4
  %14 = tail call fastcc i32 @dissect_spnego_krb5_getmic_base(ptr noundef %0, i32 noundef 2, ptr noundef %8)
  br label %32

15:                                               ; preds = %4
  %16 = tail call fastcc i32 @dissect_spnego_krb5_wrap_base(ptr noundef %0, i32 noundef 2, ptr noundef %1, ptr noundef %8, i16 noundef zeroext 258, ptr noundef %3)
  br label %32

17:                                               ; preds = %4
  %18 = tail call zeroext i8 @tvb_get_guint8(ptr noundef %0, i32 noundef 2) #6
  %19 = load i32, ptr @hf_spnego_krb5_cfx_flags, align 4
  %20 = load i32, ptr @ett_spnego_krb5_cfx_flags, align 4
  %21 = tail call ptr @proto_tree_add_bitmask(ptr noundef %8, ptr noundef %0, i32 noundef 2, i32 noundef %19, i32 noundef %20, ptr noundef nonnull @dissect_spnego_krb5_cfx_flags.flags, i32 noundef 0) #6
  %22 = load i32, ptr @hf_spnego_krb5_filler, align 4
  %23 = tail call ptr @proto_tree_add_item(ptr noundef %8, i32 noundef %22, ptr noundef %0, i32 noundef 3, i32 noundef 5, i32 noundef 0) #6
  %24 = load i32, ptr @hf_spnego_krb5_cfx_seq, align 4
  %25 = tail call ptr @proto_tree_add_item(ptr noundef %8, i32 noundef %24, ptr noundef %0, i32 noundef 8, i32 noundef 8, i32 noundef 0) #6
  %26 = tail call i32 @tvb_captured_length_remaining(ptr noundef %0, i32 noundef 16) #6
  %27 = load i32, ptr @hf_spnego_krb5_sgn_cksum, align 4
  %28 = tail call ptr @proto_tree_add_item(ptr noundef %8, i32 noundef %27, ptr noundef %0, i32 noundef 16, i32 noundef %26, i32 noundef 0) #6
  %29 = add i32 %26, 16
  br label %32

30:                                               ; preds = %4
  %31 = tail call fastcc i32 @dissect_spnego_krb5_cfx_wrap_base(ptr noundef %0, i32 noundef 2, ptr noundef %1, ptr noundef %8, ptr noundef %3)
  br label %32

32:                                               ; preds = %4, %30, %17, %15, %13
  %.0 = phi i32 [ 2, %4 ], [ %31, %30 ], [ %29, %17 ], [ %16, %15 ], [ %14, %13 ]
  tail call void @proto_item_set_len(ptr noundef %6, i32 noundef %.0) #6
  ret i32 %.0
}